
main.elf:     formato del fichero elf64-littleaarch64


Desensamblado de la sección .text:

0000000040080000 <_start>:
    40080000:	58000d00 	ldr	x0, 400801a0 <end_iterate+0x10>
    40080004:	58000d21 	ldr	x1, 400801a8 <end_iterate+0x18>
    40080008:	fd400021 	ldr	d1, [x1]
    4008000c:	58000d22 	ldr	x2, 400801b0 <end_iterate+0x20>
    40080010:	d2800003 	mov	x3, #0x0                   	// #0
    40080014:	9b007c04 	mul	x4, x0, x0

0000000040080018 <initialize_loop>:
    40080018:	eb04007f 	cmp	x3, x4
    4008001c:	5400008a 	b.ge	4008002c <end_initialize>  // b.tcont
    40080020:	fc237841 	str	d1, [x2, x3, lsl #3]
    40080024:	91000463 	add	x3, x3, #0x1
    40080028:	17fffffc 	b	40080018 <initialize_loop>

000000004008002c <end_initialize>:
    4008002c:	58000c60 	ldr	x0, 400801b8 <end_iterate+0x28>
    40080030:	f9400001 	ldr	x1, [x0]
    40080034:	58000c60 	ldr	x0, 400801c0 <end_iterate+0x30>
    40080038:	f9400002 	ldr	x2, [x0]
    4008003c:	58000b23 	ldr	x3, 400801a0 <end_iterate+0x10>
    40080040:	9b037c21 	mul	x1, x1, x3
    40080044:	8b020021 	add	x1, x1, x2
    40080048:	58000c04 	ldr	x4, 400801c8 <end_iterate+0x38>
    4008004c:	fd400080 	ldr	d0, [x4]
    40080050:	58000b05 	ldr	x5, 400801b0 <end_iterate+0x20>
    40080054:	fc2178a0 	str	d0, [x5, x1, lsl #3]

0000000040080058 <iterate_matrix>:
    40080058:	58000bc6 	ldr	x6, 400801d0 <end_iterate+0x40>
    4008005c:	f94000c6 	ldr	x6, [x6]
    40080060:	d2800007 	mov	x7, #0x0                   	// #0

0000000040080064 <outer_loop>:
    40080064:	eb0600ff 	cmp	x7, x6
    40080068:	5400094a 	b.ge	40080190 <end_iterate>  // b.tcont
    4008006c:	d2800008 	mov	x8, #0x0                   	// #0

0000000040080070 <row_loop>:
    40080070:	eb00011f 	cmp	x8, x0
    40080074:	5400070a 	b.ge	40080154 <next_iteration>  // b.tcont
    40080078:	d2800009 	mov	x9, #0x0                   	// #0

000000004008007c <column_loop>:
    4008007c:	eb00013f 	cmp	x9, x0
    40080080:	5400066a 	b.ge	4008014c <next_row>  // b.tcont
    40080084:	9b007d0a 	mul	x10, x8, x0
    40080088:	8b09014a 	add	x10, x10, x9
    4008008c:	9b007d0b 	mul	x11, x8, x0
    40080090:	8b09016b 	add	x11, x11, x9
    40080094:	eb0b015f 	cmp	x10, x11
    40080098:	54000560 	b.eq	40080144 <skip_cell>  // b.none
    4008009c:	1e604002 	fmov	d2, d0
    400800a0:	9100050c 	add	x12, x8, #0x1
    400800a4:	eb00019f 	cmp	x12, x0
    400800a8:	540000aa 	b.ge	400800bc <add_t_amb1>  // b.tcont
    400800ac:	9b007d8d 	mul	x13, x12, x0
    400800b0:	8b0901ad 	add	x13, x13, x9
    400800b4:	fc6d7843 	ldr	d3, [x2, x13, lsl #3]
    400800b8:	14000002 	b	400800c0 <add_sum1>

00000000400800bc <add_t_amb1>:
    400800bc:	fd400023 	ldr	d3, [x1]

00000000400800c0 <add_sum1>:
    400800c0:	1e632842 	fadd	d2, d2, d3
    400800c4:	d100050c 	sub	x12, x8, #0x1
    400800c8:	f100019f 	cmp	x12, #0x0
    400800cc:	540000ab 	b.lt	400800e0 <add_t_amb2>  // b.tstop
    400800d0:	9b007d8d 	mul	x13, x12, x0
    400800d4:	8b0901ad 	add	x13, x13, x9
    400800d8:	fc6d7843 	ldr	d3, [x2, x13, lsl #3]
    400800dc:	14000002 	b	400800e4 <add_sum2>

00000000400800e0 <add_t_amb2>:
    400800e0:	fd400023 	ldr	d3, [x1]

00000000400800e4 <add_sum2>:
    400800e4:	1e632842 	fadd	d2, d2, d3
    400800e8:	9100052c 	add	x12, x9, #0x1
    400800ec:	eb00019f 	cmp	x12, x0
    400800f0:	540000aa 	b.ge	40080104 <add_t_amb3>  // b.tcont
    400800f4:	9b007d0d 	mul	x13, x8, x0
    400800f8:	8b0c01ad 	add	x13, x13, x12
    400800fc:	fc6d7843 	ldr	d3, [x2, x13, lsl #3]
    40080100:	14000002 	b	40080108 <add_sum3>

0000000040080104 <add_t_amb3>:
    40080104:	fd400023 	ldr	d3, [x1]

0000000040080108 <add_sum3>:
    40080108:	1e632842 	fadd	d2, d2, d3
    4008010c:	d100052c 	sub	x12, x9, #0x1
    40080110:	f100019f 	cmp	x12, #0x0
    40080114:	540000ab 	b.lt	40080128 <add_t_amb4>  // b.tstop
    40080118:	9b007d0d 	mul	x13, x8, x0
    4008011c:	8b0c01ad 	add	x13, x13, x12
    40080120:	fc6d7843 	ldr	d3, [x2, x13, lsl #3]
    40080124:	14000002 	b	4008012c <add_sum4>

0000000040080128 <add_t_amb4>:
    40080128:	fd400023 	ldr	d3, [x1]

000000004008012c <add_sum4>:
    4008012c:	1e632842 	fadd	d2, d2, d3
    40080130:	5800054e 	ldr	x14, 400801d8 <end_iterate+0x48>
    40080134:	5800056f 	ldr	x15, 400801e0 <end_iterate+0x50>
    40080138:	fd4001e4 	ldr	d4, [x15]
    4008013c:	1e641842 	fdiv	d2, d2, d4
    40080140:	fc2a79c2 	str	d2, [x14, x10, lsl #3]

0000000040080144 <skip_cell>:
    40080144:	91000529 	add	x9, x9, #0x1
    40080148:	17ffffcd 	b	4008007c <column_loop>

000000004008014c <next_row>:
    4008014c:	91000508 	add	x8, x8, #0x1
    40080150:	17ffffc8 	b	40080070 <row_loop>

0000000040080154 <next_iteration>:
    40080154:	580002e2 	ldr	x2, 400801b0 <end_iterate+0x20>
    40080158:	5800040e 	ldr	x14, 400801d8 <end_iterate+0x48>
    4008015c:	d280000f 	mov	x15, #0x0                   	// #0

0000000040080160 <copy_loop>:
    40080160:	eb0401ff 	cmp	x15, x4
    40080164:	5400012a 	b.ge	40080188 <end_copy>  // b.tcont
    40080168:	9b007d0a 	mul	x10, x8, x0
    4008016c:	8b09014a 	add	x10, x10, x9
    40080170:	eb0a01ff 	cmp	x15, x10
    40080174:	54000060 	b.eq	40080180 <skip_copy>  // b.none
    40080178:	fc6f79c2 	ldr	d2, [x14, x15, lsl #3]
    4008017c:	fc2f7842 	str	d2, [x2, x15, lsl #3]

0000000040080180 <skip_copy>:
    40080180:	910005ef 	add	x15, x15, #0x1
    40080184:	17fffff7 	b	40080160 <copy_loop>

0000000040080188 <end_copy>:
    40080188:	910004e7 	add	x7, x7, #0x1
    4008018c:	17ffffb6 	b	40080064 <outer_loop>

0000000040080190 <end_iterate>:
    40080190:	d2800000 	mov	x0, #0x0                   	// #0
    40080194:	d2800ba8 	mov	x8, #0x5d                  	// #93
    40080198:	d4000001 	svc	#0x0
    4008019c:	00000000 	udf	#0
    400801a0:	400801e8 	.inst	0x400801e8 ; undefined
    400801a4:	00000000 	udf	#0
    400801a8:	40080200 	.inst	0x40080200 ; undefined
    400801ac:	00000000 	udf	#0
    400801b0:	40080208 	.inst	0x40080208 ; undefined
    400801b4:	00000000 	udf	#0
    400801b8:	400801f0 	.inst	0x400801f0 ; undefined
    400801bc:	00000000 	udf	#0
    400801c0:	400801f4 	.inst	0x400801f4 ; undefined
    400801c4:	00000000 	udf	#0
    400801c8:	400801f8 	.inst	0x400801f8 ; undefined
    400801cc:	00000000 	udf	#0
    400801d0:	400801ec 	.inst	0x400801ec ; undefined
    400801d4:	00000000 	udf	#0
    400801d8:	40088208 	.inst	0x40088208 ; undefined
    400801dc:	00000000 	udf	#0
    400801e0:	40090210 	.inst	0x40090210 ; undefined
    400801e4:	00000000 	udf	#0

Desensamblado de la sección .data:

00000000400801e8 <N>:
    400801e8:	00000040 	udf	#64

00000000400801ec <n_iter>:
    400801ec:	0000000a 	udf	#10

00000000400801f0 <fc_x>:
    400801f0:	00000020 	udf	#32

00000000400801f4 <fc_y>:
    400801f4:	00000020 	udf	#32

00000000400801f8 <fc_temp>:
    400801f8:	00000000 	udf	#0
    400801fc:	40590000 	.inst	0x40590000 ; undefined

0000000040080200 <t_amb>:
    40080200:	00000000 	udf	#0
    40080204:	40340000 	.inst	0x40340000 ; undefined

0000000040080208 <x>:
	...

0000000040088208 <x_tmp>:
	...

0000000040090208 <zero>:
	...

0000000040090210 <four>:
    40090210:	00000000 	udf	#0
    40090214:	40100000 	.inst	0x40100000 ; undefined

Desensamblado de la sección .debug_line:

0000000000000000 <.debug_line>:
   0:	00000099 	udf	#153
   4:	001a0002 	.inst	0x001a0002 ; undefined
   8:	01040000 	.inst	0x01040000 ; undefined
   c:	000a0efb 	.inst	0x000a0efb ; undefined
  10:	01010101 	.inst	0x01010101 ; undefined
  14:	01000000 	.inst	0x01000000 ; undefined
  18:	69616d00 	ldpsw	x0, x27, [x8, #-248]
  1c:	00732e6e 	.inst	0x00732e6e ; undefined
  20:	00000000 	udf	#0
  24:	00020900 	.inst	0x00020900 ; undefined
  28:	00400800 	.inst	0x00400800 ; undefined
  2c:	03000000 	.inst	0x03000000 ; undefined
  30:	1e1e0111 	.inst	0x1e1e0111 ; undefined
  34:	201e1e1e 	.inst	0x201e1e1e ; undefined
  38:	1e1e1e1e 	.inst	0x1e1e1e1e ; undefined
  3c:	1e1e1e21 	.inst	0x1e1e1e21 ; undefined
  40:	1e1e1e1e 	.inst	0x1e1e1e1e ; undefined
  44:	201e1e1e 	.inst	0x201e1e1e ; undefined
  48:	1e201e1e 	fcsel	s30, s16, s0, ne	// ne = any
  4c:	1e1e201e 	.inst	0x1e1e201e ; undefined
  50:	1e1e1e20 	.inst	0x1e1e1e20 ; undefined
  54:	1e1e1e1e 	.inst	0x1e1e1e1e ; undefined
  58:	1e1e1e20 	.inst	0x1e1e1e20 ; undefined
  5c:	1e1e1e1e 	.inst	0x1e1e1e1e ; undefined
  60:	1e1f2020 	.inst	0x1e1f2020 ; undefined
  64:	1e1e1e1e 	.inst	0x1e1e1e1e ; undefined
  68:	1f20201e 	fnmadd	s30, s0, s0, s8
  6c:	1e1e1e1e 	.inst	0x1e1e1e1e ; undefined
  70:	20201e1e 	.inst	0x20201e1e ; undefined
  74:	1e1e1e1f 	.inst	0x1e1e1e1f ; undefined
  78:	201e1e1e 	.inst	0x201e1e1e ; undefined
  7c:	1e1e2020 	.inst	0x1e1e2020 ; undefined
  80:	1e201e1e 	fcsel	s30, s16, s0, ne	// ne = any
  84:	1e201e20 	fcsel	s0, s17, s0, ne	// ne = any
  88:	1e1e201e 	.inst	0x1e1e201e ; undefined
  8c:	1e1e1e1e 	.inst	0x1e1e1e1e ; undefined
  90:	201e201e 	.inst	0x201e201e ; undefined
  94:	1e1e211e 	.inst	0x1e1e211e ; undefined
  98:	01001402 	.inst	0x01001402 ; undefined
  9c:	Address 0x9c is out of bounds.


Desensamblado de la sección .debug_info:

0000000000000000 <.debug_info>:
   0:	0000002a 	udf	#42
   4:	00000002 	udf	#2
   8:	01080000 	.inst	0x01080000 ; undefined
   c:	00000000 	udf	#0
  10:	40080000 	.inst	0x40080000 ; undefined
  14:	00000000 	udf	#0
  18:	400801e8 	.inst	0x400801e8 ; undefined
	...
  24:	00000007 	udf	#7
  28:	000000b4 	udf	#180
  2c:	Address 0x2c is out of bounds.


Desensamblado de la sección .debug_abbrev:

0000000000000000 <.debug_abbrev>:
   0:	10001101 	adr	x1, 220 <_start-0x4007fde0>
   4:	12011106 	and	w6, w8, #0x8000000f
   8:	1b0e0301 	madd	w1, w24, w14, w0
   c:	130e250e 	sbfiz	w14, w8, #18, #10
  10:	00000005 	udf	#5

Desensamblado de la sección .debug_aranges:

0000000000000000 <.debug_aranges>:
   0:	0000002c 	udf	#44
   4:	00000002 	udf	#2
   8:	00080000 	.inst	0x00080000 ; undefined
   c:	00000000 	udf	#0
  10:	40080000 	.inst	0x40080000 ; undefined
  14:	00000000 	udf	#0
  18:	000001e8 	udf	#488
	...

Desensamblado de la sección .debug_str:

0000000000000000 <.debug_str>:
   0:	6e69616d 	rsubhn2	v13.8h, v11.4s, v9.4s
   4:	2f00732e 	.inst	0x2f00732e ; undefined
   8:	656d6f68 	fnmls	z8.h, p3/m, z27.h, z13.h
   c:	2d6c652f 	ldp	s15, s25, [x9, #-160]
  10:	6b6e6179 	.inst	0x6b6e6179 ; undefined
  14:	442f6565 	.inst	0x442f6565 ; undefined
  18:	6d75636f 	ldp	d15, d24, [x27, #-176]
  1c:	6f746e65 	.inst	0x6f746e65 ; undefined
  20:	20312f73 	.inst	0x20312f73 ; undefined
  24:	6e55202d 	.inst	0x6e55202d ; undefined
  28:	72657669 	.inst	0x72657669 ; undefined
  2c:	61646973 	.inst	0x61646973 ; undefined
  30:	41462f64 	.inst	0x41462f64 ; undefined
  34:	2f46414d 	mls	v13.4h, v10.4h, v6.h[0]
  38:	202d2036 	.inst	0x202d2036 ; undefined
  3c:	6574614d 	fnmls	z13.h, p0/m, z10.h, z20.h
  40:	73616972 	.inst	0x73616972 ; undefined
  44:	78655320 	ldsminlh	w5, w0, [x25]
  48:	43206f74 	.inst	0x43206f74 ; undefined
  4c:	72746175 	.inst	0x72746175 ; undefined
  50:	73656d69 	.inst	0x73656d69 ; undefined
  54:	2f657274 	fcmla	v20.4h, v19.4h, v5.h[1], #270
  58:	75717241 	.inst	0x75717241 ; undefined
  5c:	63657469 	.inst	0x63657469 ; undefined
  60:	61727574 	.inst	0x61727574 ; undefined
  64:	20656420 	.inst	0x20656420 ; undefined
  68:	706d6f43 	adr	x3, dae53 <_start-0x3ffa51ad>
  6c:	64617475 	.inst	0x64617475 ; undefined
  70:	7361726f 	.inst	0x7361726f ; undefined
  74:	62614c2f 	.inst	0x62614c2f ; undefined
  78:	7461726f 	.inst	0x7461726f ; undefined
  7c:	6f69726f 	fcmla	v15.8h, v19.8h, v9.h[1], #270
  80:	614c2f73 	.inst	0x614c2f73 ; undefined
  84:	61726f62 	.inst	0x61726f62 ; undefined
  88:	69726f74 	ldpsw	x20, x27, [x27, #-112]
  8c:	2f32206f 	.inst	0x2f32206f ; undefined
  90:	3262616c 	.inst	0x3262616c ; undefined
  94:	6364612d 	.inst	0x6364612d ; undefined
  98:	34323032 	cbz	w18, 6469c <_start-0x4001b964>
  9c:	3833672d 	.inst	0x3833672d ; undefined
  a0:	6d65742f 	ldp	d15, d29, [x1, #-432]
  a4:	74616c70 	.inst	0x74616c70 ; undefined
  a8:	65745f65 	fnmla	z5.h, p7/m, z27.h, z20.h
  ac:	715f7473 	subs	w19, w3, #0x7dd, lsl #12
  b0:	00756d65 	.inst	0x00756d65 ; undefined
  b4:	20554e47 	.inst	0x20554e47 ; undefined
  b8:	32205341 	orr	w1, w26, #0x1fffff
  bc:	0032342e 	.inst	0x0032342e ; NYI
